; Function Attrs: nounwind uwtable
define hidden void @SetAudioBufferVolume(ptr noundef writeonly captures(address_is_null) %0, float noundef %1) local_unnamed_addr #7 {
  %.not = icmp eq ptr %0, null
  br i1 %.not, label %7, label %3

3:                                                ; preds = %2
  %4 = tail call i32 @pthread_mutex_lock(ptr noundef nonnull getelementptr inbounds nuw (i8, ptr @AUDIO, i64 4792)) #72
  %5 = getelementptr inbounds nuw i8, ptr %0, i64 328
  store float %1, ptr %5, align 8
  %6 = tail call i32 @pthread_mutex_unlock(ptr noundef nonnull getelementptr inbounds nuw (i8, ptr @AUDIO, i64 4792)) #72
  br label %7

7:                                                ; preds = %3, %2
  ret void
}